target datalayout = "e-m:e-p270:32:32-p271:32:32-p272:64:64-i64:64-i128:128-f80:128-n8:16:32:64-S128"
target triple = "x86_64-pc-linux-gnu"

%struct.lv_ll_t = type { i32, ptr, ptr }
%struct._lv_group_t = type { %struct.lv_ll_t, ptr, ptr, ptr, ptr, i8 }
%struct._lv_obj_t = type { ptr, ptr, ptr, ptr, ptr, %struct.lv_area_t, i32, i16, i16 }
%struct.lv_area_t = type { i32, i32, i32, i32 }
%struct._lv_obj_spec_attr_t = type { ptr, ptr, %struct.lv_event_list_t, %struct.lv_point_t, i32, i32, i16, i16 }
%struct.lv_event_list_t = type { %struct._lv_array_t, i8 }
%struct._lv_array_t = type { ptr, i32, i32, i32, i8 }
%struct.lv_point_t = type { i32, i32 }

; Function Attrs: nounwind uwtable
define internal ptr @get_indev(ptr noundef %0) #0 {
  %2 = alloca ptr, align 8
  %3 = alloca ptr, align 8
  %4 = alloca ptr, align 8
  %5 = alloca ptr, align 8
  %6 = alloca i32, align 4
  %7 = alloca i32, align 4
  store ptr %0, ptr %3, align 8, !tbaa !3
  call void @llvm.lifetime.start.p0(i64 8, ptr %4) #3
  store ptr null, ptr %4, align 8, !tbaa !3
  call void @llvm.lifetime.start.p0(i64 8, ptr %5) #3
  %8 = call ptr @lv_indev_get_next(ptr noundef null)
  store ptr %8, ptr %5, align 8, !tbaa !3
  br label %9

9:                                                ; preds = %31, %1
  %10 = load ptr, ptr %5, align 8, !tbaa !3
  %11 = icmp ne ptr %10, null
  br i1 %11, label %12, label %32

12:                                               ; preds = %9
  call void @llvm.lifetime.start.p0(i64 4, ptr %6) #3
  %13 = load ptr, ptr %5, align 8, !tbaa !3
  %14 = call i32 @lv_indev_get_type(ptr noundef %13)
  store i32 %14, ptr %6, align 4, !tbaa !27
  %15 = load i32, ptr %6, align 4, !tbaa !27
  %16 = icmp eq i32 %15, 1
  br i1 %16, label %17, label %19

17:                                               ; preds = %12
  %18 = load ptr, ptr %5, align 8, !tbaa !3
  store ptr %18, ptr %2, align 8
  store i32 1, ptr %7, align 4
  br label %29

19:                                               ; preds = %12
  %20 = load ptr, ptr %5, align 8, !tbaa !3
  %21 = call ptr @lv_indev_get_group(ptr noundef %20)
  %22 = load ptr, ptr %3, align 8, !tbaa !3
  %23 = icmp eq ptr %21, %22
  br i1 %23, label %24, label %26

24:                                               ; preds = %19
  %25 = load ptr, ptr %5, align 8, !tbaa !3
  store ptr %25, ptr %4, align 8, !tbaa !3
  br label %26

26:                                               ; preds = %24, %19
  %27 = load ptr, ptr %5, align 8, !tbaa !3
  %28 = call ptr @lv_indev_get_next(ptr noundef %27)
  store ptr %28, ptr %5, align 8, !tbaa !3
  store i32 0, ptr %7, align 4
  br label %29

29:                                               ; preds = %26, %17
  call void @llvm.lifetime.end.p0(i64 4, ptr %6) #3
  %30 = load i32, ptr %7, align 4
  switch i32 %30, label %34 [
    i32 0, label %31
  ]

31:                                               ; preds = %29
  br label %9, !llvm.loop !28

32:                                               ; preds = %9
  %33 = load ptr, ptr %4, align 8, !tbaa !3
  store ptr %33, ptr %2, align 8
  store i32 1, ptr %7, align 4
  br label %34

34:                                               ; preds = %32, %29
  call void @llvm.lifetime.end.p0(i64 8, ptr %5) #3
  call void @llvm.lifetime.end.p0(i64 8, ptr %4) #3
  %35 = load ptr, ptr %2, align 8
  ret ptr %35
}

; Function Attrs: nounwind uwtable
define void @lv_group_remove_all_objs(ptr noundef %0) #0 {
  %2 = alloca ptr, align 8
  %3 = alloca ptr, align 8
  store ptr %0, ptr %2, align 8, !tbaa !3
  br label %4

4:                                                ; preds = %1
  %5 = load ptr, ptr %2, align 8, !tbaa !3
  %6 = icmp ne ptr %5, null
  br i1 %6, label %11, label %7

7:                                                ; preds = %4
  br label %8

8:                                                ; preds = %7
  br label %9

9:                                                ; preds = %8
  br label %10

10:                                               ; preds = %9, %10
  br label %10

11:                                               ; preds = %4
  br label %12

12:                                               ; preds = %11
  %13 = load ptr, ptr %2, align 8, !tbaa !3
  %14 = getelementptr inbounds nuw %struct._lv_group_t, ptr %13, i32 0, i32 1
  %15 = load ptr, ptr %14, align 8, !tbaa !7
  %16 = icmp ne ptr %15, null
  br i1 %16, label %17, label %31

17:                                               ; preds = %12
  %18 = load ptr, ptr %2, align 8, !tbaa !3
  %19 = getelementptr inbounds nuw %struct._lv_group_t, ptr %18, i32 0, i32 1
  %20 = load ptr, ptr %19, align 8, !tbaa !7
  %21 = load ptr, ptr %20, align 8, !tbaa !3
  %22 = load ptr, ptr %2, align 8, !tbaa !3
  %23 = call ptr @get_indev(ptr noundef %22)
  %24 = call i32 @lv_obj_send_event(ptr noundef %21, i32 noundef 20, ptr noundef %23)
  %25 = load ptr, ptr %2, align 8, !tbaa !3
  %26 = getelementptr inbounds nuw %struct._lv_group_t, ptr %25, i32 0, i32 1
  %27 = load ptr, ptr %26, align 8, !tbaa !7
  %28 = load ptr, ptr %27, align 8, !tbaa !3
  call void @lv_obj_invalidate(ptr noundef %28)
  %29 = load ptr, ptr %2, align 8, !tbaa !3
  %30 = getelementptr inbounds nuw %struct._lv_group_t, ptr %29, i32 0, i32 1
  store ptr null, ptr %30, align 8, !tbaa !7
  br label %31

31:                                               ; preds = %17, %12
  call void @llvm.lifetime.start.p0(i64 8, ptr %3) #3
  %32 = load ptr, ptr %2, align 8, !tbaa !3
  %33 = getelementptr inbounds nuw %struct._lv_group_t, ptr %32, i32 0, i32 0
  %34 = call ptr @lv_ll_get_head(ptr noundef %33)
  store ptr %34, ptr %3, align 8, !tbaa !3
  br label %35

35:                                               ; preds = %51, %31
  %36 = load ptr, ptr %3, align 8, !tbaa !3
  %37 = icmp ne ptr %36, null
  br i1 %37, label %38, label %56

38:                                               ; preds = %35
  %39 = load ptr, ptr %3, align 8, !tbaa !3
  %40 = load ptr, ptr %39, align 8, !tbaa !3
  %41 = getelementptr inbounds nuw %struct._lv_obj_t, ptr %40, i32 0, i32 2
  %42 = load ptr, ptr %41, align 8, !tbaa !14
  %43 = icmp ne ptr %42, null
  br i1 %43, label %44, label %50

44:                                               ; preds = %38
  %45 = load ptr, ptr %3, align 8, !tbaa !3
  %46 = load ptr, ptr %45, align 8, !tbaa !3
  %47 = getelementptr inbounds nuw %struct._lv_obj_t, ptr %46, i32 0, i32 2
  %48 = load ptr, ptr %47, align 8, !tbaa !14
  %49 = getelementptr inbounds nuw %struct._lv_obj_spec_attr_t, ptr %48, i32 0, i32 1
  store ptr null, ptr %49, align 8, !tbaa !18
  br label %50

50:                                               ; preds = %44, %38
  br label %51

51:                                               ; preds = %50
  %52 = load ptr, ptr %2, align 8, !tbaa !3
  %53 = getelementptr inbounds nuw %struct._lv_group_t, ptr %52, i32 0, i32 0
  %54 = load ptr, ptr %3, align 8, !tbaa !3
  %55 = call ptr @lv_ll_get_next(ptr noundef %53, ptr noundef %54)
  store ptr %55, ptr %3, align 8, !tbaa !3
  br label %35, !llvm.loop !43

56:                                               ; preds = %35
  %57 = load ptr, ptr %2, align 8, !tbaa !3
  %58 = getelementptr inbounds nuw %struct._lv_group_t, ptr %57, i32 0, i32 0
  call void @lv_ll_clear(ptr noundef %58)
  call void @llvm.lifetime.end.p0(i64 8, ptr %3) #3
  ret void
}