; Function Attrs: nounwind uwtable
define void @lv_group_remove_all_objs(ptr noundef %0) local_unnamed_addr #0 {
  %.not = icmp eq ptr %0, null
  br i1 %.not, label %.preheader, label %2

.preheader:                                       ; preds = %1, %.preheader
  br label %.preheader

2:                                                ; preds = %1
  %3 = getelementptr inbounds nuw i8, ptr %0, i64 24
  %4 = load ptr, ptr %3, align 8, !tbaa !3
  %.not16 = icmp eq ptr %4, null
  br i1 %.not16, label %16, label %5

5:                                                ; preds = %2
  %6 = load ptr, ptr %4, align 8, !tbaa !11
  %7 = tail call ptr @lv_indev_get_next(ptr noundef null) #10
  %.not20.i = icmp eq ptr %7, null
  br i1 %.not20.i, label %get_indev.exit, label %.lr.ph.i

.lr.ph.i:                                         ; preds = %5, %9
  %.01122.i = phi ptr [ %12, %9 ], [ %7, %5 ]
  %.01321.i = phi ptr [ %spec.select.i, %9 ], [ null, %5 ]
  %8 = tail call i32 @lv_indev_get_type(ptr noundef nonnull %.01122.i) #10
  %.not16.i = icmp eq i32 %8, 1
  br i1 %.not16.i, label %get_indev.exit, label %9

9:                                                ; preds = %.lr.ph.i
  %10 = tail call ptr @lv_indev_get_group(ptr noundef nonnull %.01122.i) #10
  %11 = icmp eq ptr %10, %0
  %spec.select.i = select i1 %11, ptr %.01122.i, ptr %.01321.i
  %12 = tail call ptr @lv_indev_get_next(ptr noundef nonnull %.01122.i) #10
  %.not.i = icmp eq ptr %12, null
  br i1 %.not.i, label %get_indev.exit, label %.lr.ph.i, !llvm.loop !12

get_indev.exit:                                   ; preds = %.lr.ph.i, %9, %5
  %.2.i = phi ptr [ null, %5 ], [ %spec.select.i, %9 ], [ %.01122.i, %.lr.ph.i ]
  %13 = tail call i32 @lv_obj_send_event(ptr noundef %6, i32 noundef 20, ptr noundef %.2.i) #10
  %14 = load ptr, ptr %3, align 8, !tbaa !3
  %15 = load ptr, ptr %14, align 8, !tbaa !11
  tail call void @lv_obj_invalidate(ptr noundef %15) #10
  store ptr null, ptr %3, align 8, !tbaa !3
  br label %16

16:                                               ; preds = %get_indev.exit, %2
  %17 = tail call ptr @lv_ll_get_head(ptr noundef nonnull %0) #10
  %.not1719 = icmp eq ptr %17, null
  br i1 %.not1719, label %._crit_edge, label %.lr.ph

.lr.ph:                                           ; preds = %16, %23
  %.020 = phi ptr [ %24, %23 ], [ %17, %16 ]
  %18 = load ptr, ptr %.020, align 8, !tbaa !11
  %19 = getelementptr inbounds nuw i8, ptr %18, i64 16
  %20 = load ptr, ptr %19, align 8, !tbaa !14
  %.not18 = icmp eq ptr %20, null
  br i1 %.not18, label %23, label %21

21:                                               ; preds = %.lr.ph
  %22 = getelementptr inbounds nuw i8, ptr %20, i64 8
  store ptr null, ptr %22, align 8, !tbaa !18
  br label %23

23:                                               ; preds = %.lr.ph, %21
  %24 = tail call ptr @lv_ll_get_next(ptr noundef nonnull %0, ptr noundef nonnull %.020) #10
  %.not17 = icmp eq ptr %24, null
  br i1 %.not17, label %._crit_edge, label %.lr.ph, !llvm.loop !41

._crit_edge:                                      ; preds = %23, %16
  tail call void @lv_ll_clear(ptr noundef nonnull %0) #10
  ret void
}